target datalayout = "e-m:e-p270:32:32-p271:32:32-p272:64:64-i64:64-i128:128-f80:128-n8:16:32:64-S128"
target triple = "x86_64-pc-linux-gnu"

@ff_log2_tab = external constant [256 x i8], align 16

; Function Attrs: alwaysinline nounwind willreturn memory(none) uwtable
define internal i32 @ff_log2_c(i32 noundef %0) #8 {
  %2 = alloca i32, align 4
  %3 = alloca i32, align 4
  store i32 %0, ptr %2, align 4, !tbaa !42
  call void @llvm.lifetime.start.p0(i64 4, ptr %3) #10
  store i32 0, ptr %3, align 4, !tbaa !42
  %4 = load i32, ptr %2, align 4, !tbaa !42
  %5 = and i32 %4, -65536
  %6 = icmp ne i32 %5, 0
  br i1 %6, label %7, label %12

7:                                                ; preds = %1
  %8 = load i32, ptr %2, align 4, !tbaa !42
  %9 = lshr i32 %8, 16
  store i32 %9, ptr %2, align 4, !tbaa !42
  %10 = load i32, ptr %3, align 4, !tbaa !42
  %11 = add nsw i32 %10, 16
  store i32 %11, ptr %3, align 4, !tbaa !42
  br label %12

12:                                               ; preds = %7, %1
  %13 = load i32, ptr %2, align 4, !tbaa !42
  %14 = and i32 %13, 65280
  %15 = icmp ne i32 %14, 0
  br i1 %15, label %16, label %21

16:                                               ; preds = %12
  %17 = load i32, ptr %2, align 4, !tbaa !42
  %18 = lshr i32 %17, 8
  store i32 %18, ptr %2, align 4, !tbaa !42
  %19 = load i32, ptr %3, align 4, !tbaa !42
  %20 = add nsw i32 %19, 8
  store i32 %20, ptr %3, align 4, !tbaa !42
  br label %21

21:                                               ; preds = %16, %12
  %22 = load i32, ptr %2, align 4, !tbaa !42
  %23 = zext i32 %22 to i64
  %24 = getelementptr inbounds nuw [256 x i8], ptr @ff_log2_tab, i64 0, i64 %23
  %25 = load i8, ptr %24, align 1, !tbaa !131
  %26 = zext i8 %25 to i32
  %27 = load i32, ptr %3, align 4, !tbaa !42
  %28 = add nsw i32 %27, %26
  store i32 %28, ptr %3, align 4, !tbaa !42
  %29 = load i32, ptr %3, align 4, !tbaa !42
  call void @llvm.lifetime.end.p0(i64 4, ptr %3) #10
  ret i32 %29
}

; Function Attrs: nounwind uwtable
define internal i32 @get_asf_string(ptr noundef %0, i32 noundef %1, ptr noundef %2, i32 noundef %3) #0 {
  %5 = alloca i32, align 4
  %6 = alloca ptr, align 8
  %7 = alloca i32, align 4
  %8 = alloca ptr, align 8
  %9 = alloca i32, align 4
  %10 = alloca ptr, align 8
  %11 = alloca i32, align 4
  %12 = alloca i32, align 4
  %13 = alloca i8, align 1
  %14 = alloca i32, align 4
  %15 = alloca i32, align 4
  %16 = alloca i32, align 4
  %17 = alloca i32, align 4
  %18 = alloca i32, align 4
  store ptr %0, ptr %6, align 8, !tbaa !33
  store i32 %1, ptr %7, align 4, !tbaa !42
  store ptr %2, ptr %8, align 8, !tbaa !59
  store i32 %3, ptr %9, align 4, !tbaa !42
  call void @llvm.lifetime.start.p0(i64 8, ptr %10) #10
  %19 = load ptr, ptr %8, align 8, !tbaa !59
  store ptr %19, ptr %10, align 8, !tbaa !59
  call void @llvm.lifetime.start.p0(i64 4, ptr %11) #10
  store i32 0, ptr %11, align 4, !tbaa !42
  %20 = load i32, ptr %9, align 4, !tbaa !42
  %21 = icmp sle i32 %20, 0
  br i1 %21, label %22, label %23

22:                                               ; preds = %4
  store i32 -22, ptr %5, align 4
  store i32 1, ptr %12, align 4
  br label %156

23:                                               ; preds = %4
  br label %24

24:                                               ; preds = %152, %23
  %25 = load i32, ptr %11, align 4, !tbaa !42
  %26 = add nsw i32 %25, 1
  %27 = load i32, ptr %7, align 4, !tbaa !42
  %28 = icmp slt i32 %26, %27
  br i1 %28, label %29, label %153

29:                                               ; preds = %24
  call void @llvm.lifetime.start.p0(i64 1, ptr %13) #10
  call void @llvm.lifetime.start.p0(i64 4, ptr %14) #10
  %30 = load i32, ptr %11, align 4, !tbaa !42
  %31 = add nsw i32 %30, 2
  store i32 %31, ptr %11, align 4, !tbaa !42
  %32 = load i32, ptr %7, align 4, !tbaa !42
  %33 = icmp sle i32 %31, %32
  br i1 %33, label %34, label %37

34:                                               ; preds = %29
  %35 = load ptr, ptr %6, align 8, !tbaa !33
  %36 = call i32 @avio_rl16(ptr noundef %35)
  br label %38

37:                                               ; preds = %29
  br label %38

38:                                               ; preds = %37, %34
  %39 = phi i32 [ %36, %34 ], [ 0, %37 ]
  store i32 %39, ptr %14, align 4, !tbaa !42
  call void @llvm.lifetime.start.p0(i64 4, ptr %15) #10
  %40 = load i32, ptr %14, align 4, !tbaa !42
  %41 = sub i32 %40, 55296
  store i32 %41, ptr %15, align 4, !tbaa !42
  %42 = load i32, ptr %15, align 4, !tbaa !42
  %43 = icmp ult i32 %42, 2048
  br i1 %43, label %44, label %68

44:                                               ; preds = %38
  %45 = load i32, ptr %11, align 4, !tbaa !42
  %46 = add nsw i32 %45, 2
  store i32 %46, ptr %11, align 4, !tbaa !42
  %47 = load i32, ptr %7, align 4, !tbaa !42
  %48 = icmp sle i32 %46, %47
  br i1 %48, label %49, label %52

49:                                               ; preds = %44
  %50 = load ptr, ptr %6, align 8, !tbaa !33
  %51 = call i32 @avio_rl16(ptr noundef %50)
  br label %53

52:                                               ; preds = %44
  br label %53

53:                                               ; preds = %52, %49
  %54 = phi i32 [ %51, %49 ], [ 0, %52 ]
  %55 = sub i32 %54, 56320
  store i32 %55, ptr %14, align 4, !tbaa !42
  %56 = load i32, ptr %14, align 4, !tbaa !42
  %57 = icmp ugt i32 %56, 1023
  br i1 %57, label %61, label %58

58:                                               ; preds = %53
  %59 = load i32, ptr %15, align 4, !tbaa !42
  %60 = icmp ugt i32 %59, 1023
  br i1 %60, label %61, label %62

61:                                               ; preds = %58, %53
  store i32 3, ptr %12, align 4
  br label %69

62:                                               ; preds = %58
  %63 = load i32, ptr %15, align 4, !tbaa !42
  %64 = shl i32 %63, 10
  %65 = add i32 %64, 65536
  %66 = load i32, ptr %14, align 4, !tbaa !42
  %67 = add i32 %66, %65
  store i32 %67, ptr %14, align 4, !tbaa !42
  br label %68

68:                                               ; preds = %62, %38
  store i32 0, ptr %12, align 4
  br label %69

69:                                               ; preds = %68, %61
  call void @llvm.lifetime.end.p0(i64 4, ptr %15) #10
  %70 = load i32, ptr %12, align 4
  switch i32 %70, label %150 [
    i32 0, label %71
  ]

71:                                               ; preds = %69
  call void @llvm.lifetime.start.p0(i64 4, ptr %16) #10
  call void @llvm.lifetime.start.p0(i64 4, ptr %17) #10
  call void @llvm.lifetime.start.p0(i64 4, ptr %18) #10
  %72 = load i32, ptr %14, align 4, !tbaa !42
  store i32 %72, ptr %18, align 4, !tbaa !42
  %73 = load i32, ptr %18, align 4, !tbaa !42
  %74 = icmp ult i32 %73, 128
  br i1 %74, label %75, label %92

75:                                               ; preds = %71
  %76 = load i32, ptr %18, align 4, !tbaa !42
  %77 = trunc i32 %76 to i8
  store i8 %77, ptr %13, align 1, !tbaa !131
  %78 = load ptr, ptr %10, align 8, !tbaa !59
  %79 = load ptr, ptr %8, align 8, !tbaa !59
  %80 = ptrtoint ptr %78 to i64
  %81 = ptrtoint ptr %79 to i64
  %82 = sub i64 %80, %81
  %83 = load i32, ptr %9, align 4, !tbaa !42
  %84 = sub nsw i32 %83, 1
  %85 = sext i32 %84 to i64
  %86 = icmp slt i64 %82, %85
  br i1 %86, label %87, label %91

87:                                               ; preds = %75
  %88 = load i8, ptr %13, align 1, !tbaa !131
  %89 = load ptr, ptr %10, align 8, !tbaa !59
  %90 = getelementptr inbounds nuw i8, ptr %89, i32 1
  store ptr %90, ptr %10, align 8, !tbaa !59
  store i8 %88, ptr %89, align 1, !tbaa !131
  br label %91

91:                                               ; preds = %87, %75
  br label %149

92:                                               ; preds = %71
  %93 = load i32, ptr %18, align 4, !tbaa !42
  %94 = call i32 @ff_log2_c(i32 noundef %93) #11
  %95 = add nsw i32 %94, 4
  %96 = sdiv i32 %95, 5
  store i32 %96, ptr %16, align 4, !tbaa !42
  %97 = load i32, ptr %16, align 4, !tbaa !42
  %98 = sub nsw i32 %97, 1
  %99 = mul nsw i32 %98, 6
  store i32 %99, ptr %17, align 4, !tbaa !42
  %100 = load i32, ptr %16, align 4, !tbaa !42
  %101 = ashr i32 256, %100
  %102 = sub nsw i32 256, %101
  %103 = load i32, ptr %18, align 4, !tbaa !42
  %104 = load i32, ptr %17, align 4, !tbaa !42
  %105 = lshr i32 %103, %104
  %106 = or i32 %102, %105
  %107 = trunc i32 %106 to i8
  store i8 %107, ptr %13, align 1, !tbaa !131
  %108 = load ptr, ptr %10, align 8, !tbaa !59
  %109 = load ptr, ptr %8, align 8, !tbaa !59
  %110 = ptrtoint ptr %108 to i64
  %111 = ptrtoint ptr %109 to i64
  %112 = sub i64 %110, %111
  %113 = load i32, ptr %9, align 4, !tbaa !42
  %114 = sub nsw i32 %113, 1
  %115 = sext i32 %114 to i64
  %116 = icmp slt i64 %112, %115
  br i1 %116, label %117, label %121

117:                                              ; preds = %92
  %118 = load i8, ptr %13, align 1, !tbaa !131
  %119 = load ptr, ptr %10, align 8, !tbaa !59
  %120 = getelementptr inbounds nuw i8, ptr %119, i32 1
  store ptr %120, ptr %10, align 8, !tbaa !59
  store i8 %118, ptr %119, align 1, !tbaa !131
  br label %121

121:                                              ; preds = %117, %92
  br label %122

122:                                              ; preds = %147, %121
  %123 = load i32, ptr %17, align 4, !tbaa !42
  %124 = icmp sge i32 %123, 6
  br i1 %124, label %125, label %148

125:                                              ; preds = %122
  %126 = load i32, ptr %17, align 4, !tbaa !42
  %127 = sub nsw i32 %126, 6
  store i32 %127, ptr %17, align 4, !tbaa !42
  %128 = load i32, ptr %18, align 4, !tbaa !42
  %129 = load i32, ptr %17, align 4, !tbaa !42
  %130 = lshr i32 %128, %129
  %131 = and i32 %130, 63
  %132 = or i32 128, %131
  %133 = trunc i32 %132 to i8
  store i8 %133, ptr %13, align 1, !tbaa !131
  %134 = load ptr, ptr %10, align 8, !tbaa !59
  %135 = load ptr, ptr %8, align 8, !tbaa !59
  %136 = ptrtoint ptr %134 to i64
  %137 = ptrtoint ptr %135 to i64
  %138 = sub i64 %136, %137
  %139 = load i32, ptr %9, align 4, !tbaa !42
  %140 = sub nsw i32 %139, 1
  %141 = sext i32 %140 to i64
  %142 = icmp slt i64 %138, %141
  br i1 %142, label %143, label %147

143:                                              ; preds = %125
  %144 = load i8, ptr %13, align 1, !tbaa !131
  %145 = load ptr, ptr %10, align 8, !tbaa !59
  %146 = getelementptr inbounds nuw i8, ptr %145, i32 1
  store ptr %146, ptr %10, align 8, !tbaa !59
  store i8 %144, ptr %145, align 1, !tbaa !131
  br label %147

147:                                              ; preds = %143, %125
  br label %122, !llvm.loop !176

148:                                              ; preds = %122
  br label %149

149:                                              ; preds = %148, %91
  call void @llvm.lifetime.end.p0(i64 4, ptr %18) #10
  call void @llvm.lifetime.end.p0(i64 4, ptr %17) #10
  call void @llvm.lifetime.end.p0(i64 4, ptr %16) #10
  store i32 0, ptr %12, align 4
  br label %150

150:                                              ; preds = %149, %69
  call void @llvm.lifetime.end.p0(i64 4, ptr %14) #10
  call void @llvm.lifetime.end.p0(i64 1, ptr %13) #10
  %151 = load i32, ptr %12, align 4
  switch i32 %151, label %158 [
    i32 0, label %152
    i32 3, label %153
  ]

152:                                              ; preds = %150
  br label %24, !llvm.loop !177

153:                                              ; preds = %150, %24
  %154 = load ptr, ptr %10, align 8, !tbaa !59
  store i8 0, ptr %154, align 1, !tbaa !131
  %155 = load i32, ptr %11, align 4, !tbaa !42
  store i32 %155, ptr %5, align 4
  store i32 1, ptr %12, align 4
  br label %156

156:                                              ; preds = %153, %22
  call void @llvm.lifetime.end.p0(i64 4, ptr %11) #10
  call void @llvm.lifetime.end.p0(i64 8, ptr %10) #10
  %157 = load i32, ptr %5, align 4
  ret i32 %157

158:                                              ; preds = %150
  unreachable
}