; Function Attrs: nounwind uwtable
define internal fastcc i32 @get_asf_string(ptr noundef %0, i32 noundef %1, ptr noundef %2, i32 noundef range(i32 0, 65536) %3) unnamed_addr #1 {
  %5 = icmp eq i32 %3, 0
  br i1 %5, label %72, label %.preheader

.preheader:                                       ; preds = %4
  %6 = icmp sgt i32 %1, 1
  br i1 %6, label %.lr.ph89, label %.thread80

.lr.ph89:                                         ; preds = %.preheader
  %7 = ptrtoint ptr %2 to i64
  %8 = add nsw i32 %3, -1
  %9 = zext nneg i32 %8 to i64
  br label %10

10:                                               ; preds = %.lr.ph89, %.loopexit
  %.04988 = phi ptr [ %2, %.lr.ph89 ], [ %.2, %.loopexit ]
  %.05087 = phi i32 [ 0, %.lr.ph89 ], [ %.35368, %.loopexit ]
  %11 = add nsw i32 %.05087, 2
  %12 = tail call i32 @avio_rl16(ptr noundef %0) #12
  %13 = add i32 %12, -55296
  %14 = icmp ult i32 %13, 2048
  br i1 %14, label %15, label %26

15:                                               ; preds = %10
  %16 = add nsw i32 %.05087, 4
  %.not61 = icmp sgt i32 %16, %1
  br i1 %.not61, label %20, label %17

17:                                               ; preds = %15
  %18 = tail call i32 @avio_rl16(ptr noundef %0) #12
  %19 = add i32 %18, -56320
  br label %20

20:                                               ; preds = %15, %17
  %21 = phi i32 [ %19, %17 ], [ -56320, %15 ]
  %22 = or i32 %21, %13
  %or.cond.not = icmp ult i32 %22, 1024
  br i1 %or.cond.not, label %.thread75, label %.thread80

.thread75:                                        ; preds = %20
  %23 = shl nuw nsw i32 %13, 10
  %24 = add nuw nsw i32 %23, 65536
  %25 = or disjoint i32 %21, %24
  br label %34

26:                                               ; preds = %10
  %27 = icmp ult i32 %12, 128
  br i1 %27, label %.thread70, label %34

.thread70:                                        ; preds = %26
  %28 = ptrtoint ptr %.04988 to i64
  %29 = sub i64 %28, %7
  %30 = icmp slt i64 %29, %9
  br i1 %30, label %31, label %.loopexit

31:                                               ; preds = %.thread70
  %32 = trunc nuw nsw i32 %12 to i8
  %33 = getelementptr inbounds nuw i8, ptr %.04988, i64 1
  store i8 %32, ptr %.04988, align 1, !tbaa !33
  br label %.loopexit

34:                                               ; preds = %.thread75, %26
  %.353.ph79 = phi i32 [ %16, %.thread75 ], [ %11, %26 ]
  %.155.ph78 = phi i32 [ %25, %.thread75 ], [ %12, %26 ]
  %.not.i = icmp ult i32 %.155.ph78, 65536
  %35 = lshr i32 %.155.ph78, 16
  %spec.select.i = select i1 %.not.i, i32 %.155.ph78, i32 %35
  %spec.select12.i = select i1 %.not.i, i16 0, i16 16
  %.not11.i = icmp samesign ult i32 %spec.select.i, 256
  %36 = lshr i32 %spec.select.i, 8
  %37 = or disjoint i16 %spec.select12.i, 8
  %.110.i = select i1 %.not11.i, i32 %spec.select.i, i32 %36
  %.1.i = select i1 %.not11.i, i16 %spec.select12.i, i16 %37
  %38 = zext nneg i32 %.110.i to i64
  %39 = getelementptr inbounds nuw [256 x i8], ptr @ff_log2_tab, i64 0, i64 %38
  %40 = load i8, ptr %39, align 1, !tbaa !33
  %41 = zext i8 %40 to i16
  %42 = add nuw nsw i16 %41, 4
  %.lhs.trunc = add nuw nsw i16 %42, %.1.i
  %43 = udiv i16 %.lhs.trunc, 5
  %.zext = zext nneg i16 %43 to i32
  %44 = mul nuw nsw i32 %.zext, 6
  %45 = add nsw i32 %44, -6
  %46 = ptrtoint ptr %.04988 to i64
  %47 = sub i64 %46, %7
  %48 = icmp slt i64 %47, %9
  br i1 %48, label %49, label %56

49:                                               ; preds = %34
  %50 = lshr i32 256, %.zext
  %51 = sub nsw i32 0, %50
  %52 = lshr i32 %.155.ph78, %45
  %53 = or i32 %52, %51
  %54 = trunc i32 %53 to i8
  %55 = getelementptr inbounds nuw i8, ptr %.04988, i64 1
  store i8 %54, ptr %.04988, align 1, !tbaa !33
  br label %56

56:                                               ; preds = %49, %34
  %.4 = phi ptr [ %55, %49 ], [ %.04988, %34 ]
  %57 = icmp samesign ugt i16 %.lhs.trunc, 9
  br i1 %57, label %.lr.ph, label %.loopexit

.lr.ph:                                           ; preds = %56, %68
  %.04886 = phi i32 [ %58, %68 ], [ %45, %56 ]
  %.585 = phi ptr [ %.6, %68 ], [ %.4, %56 ]
  %58 = add nsw i32 %.04886, -6
  %59 = ptrtoint ptr %.585 to i64
  %60 = sub i64 %59, %7
  %61 = icmp slt i64 %60, %9
  br i1 %61, label %62, label %68

62:                                               ; preds = %.lr.ph
  %63 = lshr i32 %.155.ph78, %58
  %64 = trunc i32 %63 to i8
  %65 = and i8 %64, 63
  %66 = or disjoint i8 %65, -128
  %67 = getelementptr inbounds nuw i8, ptr %.585, i64 1
  store i8 %66, ptr %.585, align 1, !tbaa !33
  br label %68

68:                                               ; preds = %62, %.lr.ph
  %.6 = phi ptr [ %67, %62 ], [ %.585, %.lr.ph ]
  %69 = icmp sgt i32 %.04886, 11
  br i1 %69, label %.lr.ph, label %.loopexit, !llvm.loop !174

.loopexit:                                        ; preds = %68, %56, %31, %.thread70
  %.35368 = phi i32 [ %11, %.thread70 ], [ %11, %31 ], [ %.353.ph79, %56 ], [ %.353.ph79, %68 ]
  %.2 = phi ptr [ %.04988, %.thread70 ], [ %33, %31 ], [ %.4, %56 ], [ %.6, %68 ]
  %70 = add nsw i32 %.35368, 1
  %71 = icmp slt i32 %70, %1
  br i1 %71, label %10, label %.thread80

.thread80:                                        ; preds = %.loopexit, %20, %.preheader
  %.049.lcssa = phi ptr [ %2, %.preheader ], [ %.04988, %20 ], [ %.2, %.loopexit ]
  %.151 = phi i32 [ 0, %.preheader ], [ %16, %20 ], [ %.35368, %.loopexit ]
  store i8 0, ptr %.049.lcssa, align 1, !tbaa !33
  br label %72

72:                                               ; preds = %4, %.thread80
  %.0 = phi i32 [ %.151, %.thread80 ], [ -22, %4 ]
  ret i32 %.0
}